Certificate:
    Data:
        Version: 3 (0x2)
        Serial Number:
            1d:5d:91:65:3b:74:06:bd:b1:24:4f:86:e8:49:aa:85
        Signature Algorithm: sha256WithRSAEncryption
        Issuer: CN=Easy-RSA CA
        Validity
            Not Before: May  5 17:55:52 2021 GMT
            Not After : Aug  8 17:55:52 2023 GMT
        Subject: CN=clientA
        Subject Public Key Info:
            Public Key Algorithm: rsaEncryption
                RSA Public-Key: (2048 bit)
                Modulus:
                    00:d3:6c:3e:77:35:d1:8d:1f:5e:37:7f:03:1f:41:
                    f7:04:d0:fc:cd:4b:5e:23:9e:2c:48:fc:03:b2:54:
                    f8:f5:26:a6:47:c7:16:c2:5c:1c:10:68:20:57:73:
                    b7:ea:2a:eb:a1:ca:1a:91:49:7d:d6:1f:19:ee:ad:
                    ec:e3:2a:9e:8d:9f:3b:17:bf:06:61:5b:e7:bf:ec:
                    1d:50:cb:73:ef:bb:91:ff:d6:e9:27:aa:af:5f:8a:
                    3e:0b:fb:ea:a6:ac:3a:51:61:2f:11:11:0e:5e:d6:
                    ad:ab:c7:1d:48:e3:60:c8:df:9c:8a:a8:70:4f:22:
                    ec:30:1d:8a:43:b8:9d:2a:ab:c6:39:ba:65:2c:94:
                    b9:5a:ad:2a:af:8e:cc:39:52:5a:7e:a0:ea:dd:ac:
                    24:94:5b:ce:a8:99:73:d1:16:15:10:b4:c9:1e:5e:
                    e8:03:82:20:11:05:a4:bf:78:8a:58:26:07:9b:2a:
                    64:e8:cb:c6:2b:69:ca:71:81:69:19:69:cc:18:06:
                    80:1e:eb:1b:ff:f2:d8:79:e9:fb:5d:42:ac:8f:cd:
                    85:d0:96:2e:8d:9a:4b:6a:e4:bd:4c:83:07:94:71:
                    9e:10:63:62:92:66:98:e8:21:34:01:71:9f:e3:10:
                    26:b1:0e:2a:3c:60:84:6c:ea:0a:e8:7e:f6:37:58:
                    3d:15
                Exponent: 65537 (0x10001)
        X509v3 extensions:
            X509v3 Basic Constraints: 
                CA:FALSE
            X509v3 Subject Key Identifier: 
                48:70:2F:B4:60:F4:37:6F:8A:5B:6F:CB:C6:9C:83:60:C5:CF:41:36
            X509v3 Authority Key Identifier: 
                keyid:30:76:5D:C5:B8:7A:8B:FC:C8:77:D5:0D:CB:C4:5E:12:E4:9B:92:98
                DirName:/CN=Easy-RSA CA
                serial:75:6C:8A:7E:6A:57:D2:FD:10:F2:01:87:32:62:E6:2B:57:81:BF:98

            X509v3 Extended Key Usage: 
                TLS Web Client Authentication
            X509v3 Key Usage: 
                Digital Signature
    Signature Algorithm: sha256WithRSAEncryption
         1b:7b:7a:ca:76:14:c5:73:66:4a:b4:b8:70:7a:da:df:65:3d:
         75:4d:a7:94:25:21:56:88:93:d1:fa:09:55:fd:76:53:68:04:
         c3:e5:d8:48:bc:14:68:ed:ea:ea:4c:d3:ef:fa:7d:33:8a:9c:
         aa:44:a5:15:fb:46:e6:79:27:24:82:d5:04:9e:58:2f:4d:0f:
         fd:e7:6c:74:30:fb:30:22:bd:1a:40:e2:fe:ad:64:31:2c:b3:
         92:3d:8c:87:5e:ed:19:ac:61:85:b6:c4:2e:ac:b5:d6:97:ca:
         c3:a4:57:ea:94:e9:73:b6:8b:7e:7e:a5:74:81:3a:1a:8f:21:
         ec:0f:25:2d:5c:59:9b:3f:89:71:c4:26:27:16:35:2d:7c:d9:
         d5:ec:36:7c:39:8a:3a:dc:3b:5c:60:6c:bc:98:39:a3:85:ea:
         7e:9c:25:8e:93:dd:fc:47:5f:4a:07:4b:c6:f7:84:9b:0f:ad:
         44:a9:dc:59:dc:88:14:c1:bc:e9:0a:0c:82:f0:f2:18:8e:2a:
         5e:4c:87:b6:e9:e2:d2:c7:4c:e4:f8:97:cd:7f:de:12:0a:77:
         6d:f6:1b:23:7c:3b:60:64:55:98:49:cc:d3:66:43:26:5d:42:
         44:09:a9:3b:69:e1:d0:8b:ce:ae:e8:ff:6a:50:7b:3f:e8:24:
         c0:b2:70:ac
-----BEGIN CERTIFICATE-----
MIIDVTCCAj2gAwIBAgIQHV2RZTt0Br2xJE+G6EmqhTANBgkqhkiG9w0BAQsFADAW
MRQwEgYDVQQDDAtFYXN5LVJTQSBDQTAeFw0yMTA1MDUxNzU1NTJaFw0yMzA4MDgx
NzU1NTJaMBIxEDAOBgNVBAMMB2NsaWVudEEwggEiMA0GCSqGSIb3DQEBAQUAA4IB
DwAwggEKAoIBAQDTbD53NdGNH143fwMfQfcE0PzNS14jnixI/AOyVPj1JqZHxxbC
XBwQaCBXc7fqKuuhyhqRSX3WHxnurezjKp6NnzsXvwZhW+e/7B1Qy3Pvu5H/1ukn
qq9fij4L++qmrDpRYS8REQ5e1q2rxx1I42DI35yKqHBPIuwwHYpDuJ0qq8Y5umUs
lLlarSqvjsw5Ulp+oOrdrCSUW86omXPRFhUQtMkeXugDgiARBaS/eIpYJgebKmTo
y8YracpxgWkZacwYBoAe6xv/8th56ftdQqyPzYXQli6Nmktq5L1MgweUcZ4QY2KS
ZpjoITQBcZ/jECaxDio8YIRs6grofvY3WD0VAgMBAAGjgaIwgZ8wCQYDVR0TBAIw
ADAdBgNVHQ4EFgQUSHAvtGD0N2+KW2/LxpyDYMXPQTYwUQYDVR0jBEowSIAUMHZd
xbh6i/zId9UNy8ReEuSbkpihGqQYMBYxFDASBgNVBAMMC0Vhc3ktUlNBIENBghR1
bIp+alfS/RDyAYcyYuYrV4G/mDATBgNVHSUEDDAKBggrBgEFBQcDAjALBgNVHQ8E
BAMCB4AwDQYJKoZIhvcNAQELBQADggEBABt7esp2FMVzZkq0uHB62t9lPXVNp5Ql
IVaIk9H6CVX9dlNoBMPl2Ei8FGjt6upM0+/6fTOKnKpEpRX7RuZ5JySC1QSeWC9N
D/3nbHQw+zAivRpA4v6tZDEss5I9jIde7RmsYYW2xC6stdaXysOkV+qU6XO2i35+
pXSBOhqPIewPJS1cWZs/iXHEJicWNS182dXsNnw5ijrcO1xgbLyYOaOF6n6cJY6T
3fxHX0oHS8b3hJsPrUSp3FnciBTBvOkKDILw8hiOKl5Mh7bp4tLHTOT4l81/3hIK
d232GyN8O2BkVZhJzNNmQyZdQkQJqTtp4dCLzq7o/2pQez/oJMCycKw=
-----END CERTIFICATE-----
